; Function Attrs: mustprogress uwtable
define void @_ZN3gmx18AbstractPlotModule11setSubtitleEPKc(ptr noundef nonnull readonly align 8 captures(none) dereferenceable(16) %0, ptr noundef %1) local_unnamed_addr #2 align 2 {
  %3 = getelementptr inbounds nuw i8, ptr %0, i64 8
  %4 = load ptr, ptr %3, align 8, !tbaa !4
  %5 = getelementptr inbounds nuw i8, ptr %4, i64 96
  %6 = getelementptr inbounds nuw i8, ptr %4, i64 104
  %7 = load i64, ptr %6, align 8, !tbaa !9
  %8 = tail call noundef i64 @strlen(ptr noundef nonnull dereferenceable(1) %1) #35
  %9 = tail call noundef nonnull align 8 dereferenceable(32) ptr @_ZNSt7__cxx1112basic_stringIcSt11char_traitsIcESaIcEE10_M_replaceEmmPKcm(ptr noundef nonnull align 8 dereferenceable(32) %5, i64 noundef 0, i64 noundef %7, ptr noundef nonnull %1, i64 noundef %8)
  ret void
}